target datalayout = "e-m:e-p270:32:32-p271:32:32-p272:64:64-i64:64-i128:128-f80:128-n8:16:32:64-S128"
target triple = "x86_64-pc-linux-gnu"

%struct._wmem_range_t = type { i64, i64, i64 }
%struct._wmem_tree_node_t = type { ptr, ptr, ptr, ptr, ptr, i32, i8, i8 }

; Function Attrs: nounwind uwtable
define internal void @update_max_edge(ptr noundef %0) #0 {
  %2 = alloca ptr, align 8
  %3 = alloca ptr, align 8
  %4 = alloca ptr, align 8
  %5 = alloca ptr, align 8
  %6 = alloca i64, align 8
  store ptr %0, ptr %2, align 8
  store i64 0, ptr %6, align 8
  %7 = load ptr, ptr %2, align 8
  %8 = icmp ne ptr %7, null
  br i1 %8, label %10, label %9

9:                                                ; preds = %1
  br label %89

10:                                               ; preds = %1
  %11 = load ptr, ptr %2, align 8
  %12 = getelementptr inbounds %struct._wmem_tree_node_t, ptr %11, i32 0, i32 3
  %13 = load ptr, ptr %12, align 8
  store ptr %13, ptr %3, align 8
  %14 = load ptr, ptr %2, align 8
  %15 = getelementptr inbounds %struct._wmem_tree_node_t, ptr %14, i32 0, i32 1
  %16 = load ptr, ptr %15, align 8
  %17 = icmp ne ptr %16, null
  br i1 %17, label %18, label %24

18:                                               ; preds = %10
  %19 = load ptr, ptr %2, align 8
  %20 = getelementptr inbounds %struct._wmem_tree_node_t, ptr %19, i32 0, i32 1
  %21 = load ptr, ptr %20, align 8
  %22 = getelementptr inbounds %struct._wmem_tree_node_t, ptr %21, i32 0, i32 3
  %23 = load ptr, ptr %22, align 8
  br label %25

24:                                               ; preds = %10
  br label %25

25:                                               ; preds = %24, %18
  %26 = phi ptr [ %23, %18 ], [ null, %24 ]
  store ptr %26, ptr %4, align 8
  %27 = load ptr, ptr %2, align 8
  %28 = getelementptr inbounds %struct._wmem_tree_node_t, ptr %27, i32 0, i32 2
  %29 = load ptr, ptr %28, align 8
  %30 = icmp ne ptr %29, null
  br i1 %30, label %31, label %37

31:                                               ; preds = %25
  %32 = load ptr, ptr %2, align 8
  %33 = getelementptr inbounds %struct._wmem_tree_node_t, ptr %32, i32 0, i32 2
  %34 = load ptr, ptr %33, align 8
  %35 = getelementptr inbounds %struct._wmem_tree_node_t, ptr %34, i32 0, i32 3
  %36 = load ptr, ptr %35, align 8
  br label %38

37:                                               ; preds = %25
  br label %38

38:                                               ; preds = %37, %31
  %39 = phi ptr [ %36, %31 ], [ null, %37 ]
  store ptr %39, ptr %5, align 8
  %40 = load ptr, ptr %3, align 8
  %41 = getelementptr inbounds %struct._wmem_range_t, ptr %40, i32 0, i32 1
  %42 = load i64, ptr %41, align 8
  store i64 %42, ptr %6, align 8
  %43 = load ptr, ptr %5, align 8
  %44 = icmp ne ptr %43, null
  br i1 %44, label %45, label %59

45:                                               ; preds = %38
  %46 = load i64, ptr %6, align 8
  %47 = load ptr, ptr %5, align 8
  %48 = getelementptr inbounds %struct._wmem_range_t, ptr %47, i32 0, i32 2
  %49 = load i64, ptr %48, align 8
  %50 = icmp ugt i64 %46, %49
  br i1 %50, label %51, label %53

51:                                               ; preds = %45
  %52 = load i64, ptr %6, align 8
  br label %57

53:                                               ; preds = %45
  %54 = load ptr, ptr %5, align 8
  %55 = getelementptr inbounds %struct._wmem_range_t, ptr %54, i32 0, i32 2
  %56 = load i64, ptr %55, align 8
  br label %57

57:                                               ; preds = %53, %51
  %58 = phi i64 [ %52, %51 ], [ %56, %53 ]
  store i64 %58, ptr %6, align 8
  br label %59

59:                                               ; preds = %57, %38
  %60 = load ptr, ptr %4, align 8
  %61 = icmp ne ptr %60, null
  br i1 %61, label %62, label %76

62:                                               ; preds = %59
  %63 = load i64, ptr %6, align 8
  %64 = load ptr, ptr %4, align 8
  %65 = getelementptr inbounds %struct._wmem_range_t, ptr %64, i32 0, i32 2
  %66 = load i64, ptr %65, align 8
  %67 = icmp ugt i64 %63, %66
  br i1 %67, label %68, label %70

68:                                               ; preds = %62
  %69 = load i64, ptr %6, align 8
  br label %74

70:                                               ; preds = %62
  %71 = load ptr, ptr %4, align 8
  %72 = getelementptr inbounds %struct._wmem_range_t, ptr %71, i32 0, i32 2
  %73 = load i64, ptr %72, align 8
  br label %74

74:                                               ; preds = %70, %68
  %75 = phi i64 [ %69, %68 ], [ %73, %70 ]
  store i64 %75, ptr %6, align 8
  br label %76

76:                                               ; preds = %74, %59
  %77 = load ptr, ptr %3, align 8
  %78 = getelementptr inbounds %struct._wmem_range_t, ptr %77, i32 0, i32 2
  %79 = load i64, ptr %78, align 8
  %80 = load i64, ptr %6, align 8
  %81 = icmp ne i64 %79, %80
  br i1 %81, label %82, label %89

82:                                               ; preds = %76
  %83 = load i64, ptr %6, align 8
  %84 = load ptr, ptr %3, align 8
  %85 = getelementptr inbounds %struct._wmem_range_t, ptr %84, i32 0, i32 2
  store i64 %83, ptr %85, align 8
  %86 = load ptr, ptr %2, align 8
  %87 = getelementptr inbounds %struct._wmem_tree_node_t, ptr %86, i32 0, i32 0
  %88 = load ptr, ptr %87, align 8
  call void @update_max_edge(ptr noundef %88)
  br label %89

89:                                               ; preds = %82, %76, %9
  ret void
}

; Function Attrs: nounwind uwtable
define internal void @update_edges_after_rotation(ptr noundef %0) #0 {
  %2 = alloca ptr, align 8
  store ptr %0, ptr %2, align 8
  %3 = load ptr, ptr %2, align 8
  %4 = getelementptr inbounds %struct._wmem_tree_node_t, ptr %3, i32 0, i32 1
  %5 = load ptr, ptr %4, align 8
  %6 = icmp ne ptr %5, null
  br i1 %6, label %7, label %11

7:                                                ; preds = %1
  %8 = load ptr, ptr %2, align 8
  %9 = getelementptr inbounds %struct._wmem_tree_node_t, ptr %8, i32 0, i32 1
  %10 = load ptr, ptr %9, align 8
  call void @update_max_edge(ptr noundef %10)
  br label %11

11:                                               ; preds = %7, %1
  %12 = load ptr, ptr %2, align 8
  %13 = getelementptr inbounds %struct._wmem_tree_node_t, ptr %12, i32 0, i32 2
  %14 = load ptr, ptr %13, align 8
  %15 = icmp ne ptr %14, null
  br i1 %15, label %16, label %20

16:                                               ; preds = %11
  %17 = load ptr, ptr %2, align 8
  %18 = getelementptr inbounds %struct._wmem_tree_node_t, ptr %17, i32 0, i32 2
  %19 = load ptr, ptr %18, align 8
  call void @update_max_edge(ptr noundef %19)
  br label %20

20:                                               ; preds = %16, %11
  ret void
}