; Function Attrs: nofree norecurse nosync nounwind memory(readwrite, inaccessiblemem: none) uwtable
define internal void @update_edges_after_rotation(ptr noundef readonly captures(none) %0) #3 {
  %2 = getelementptr inbounds nuw i8, ptr %0, i64 8
  %3 = load ptr, ptr %2, align 8
  %.not = icmp eq ptr %3, null
  br i1 %.not, label %update_max_edge.exit, label %.lr.ph.i

.lr.ph.i:                                         ; preds = %1, %tailrecurse.i
  %.tr36.i = phi ptr [ %32, %tailrecurse.i ], [ %3, %1 ]
  %4 = getelementptr inbounds nuw i8, ptr %.tr36.i, i64 24
  %5 = load ptr, ptr %4, align 8
  %6 = getelementptr inbounds nuw i8, ptr %.tr36.i, i64 8
  %7 = load ptr, ptr %6, align 8
  %.not29.i = icmp eq ptr %7, null
  br i1 %.not29.i, label %11, label %8

8:                                                ; preds = %.lr.ph.i
  %9 = getelementptr inbounds nuw i8, ptr %7, i64 24
  %10 = load ptr, ptr %9, align 8
  br label %11

11:                                               ; preds = %8, %.lr.ph.i
  %12 = phi ptr [ %10, %8 ], [ null, %.lr.ph.i ]
  %13 = getelementptr inbounds nuw i8, ptr %.tr36.i, i64 16
  %14 = load ptr, ptr %13, align 8
  %.not30.i = icmp eq ptr %14, null
  br i1 %.not30.i, label %.thread.i, label %17

.thread.i:                                        ; preds = %11
  %15 = getelementptr inbounds nuw i8, ptr %5, i64 8
  %16 = load i64, ptr %15, align 8
  br label %25

17:                                               ; preds = %11
  %18 = getelementptr inbounds nuw i8, ptr %14, i64 24
  %19 = load ptr, ptr %18, align 8
  %20 = getelementptr inbounds nuw i8, ptr %5, i64 8
  %21 = load i64, ptr %20, align 8
  %.not31.i = icmp eq ptr %19, null
  br i1 %.not31.i, label %25, label %22

22:                                               ; preds = %17
  %23 = getelementptr inbounds nuw i8, ptr %19, i64 16
  %24 = load i64, ptr %23, align 8
  %..i = tail call i64 @llvm.umax.i64(i64 %21, i64 %24)
  br label %25

25:                                               ; preds = %22, %17, %.thread.i
  %.0.i = phi i64 [ %..i, %22 ], [ %21, %17 ], [ %16, %.thread.i ]
  %.not32.i = icmp eq ptr %12, null
  br i1 %.not32.i, label %29, label %26

26:                                               ; preds = %25
  %27 = getelementptr inbounds nuw i8, ptr %12, i64 16
  %28 = load i64, ptr %27, align 8
  %.0..i = tail call i64 @llvm.umax.i64(i64 %.0.i, i64 %28)
  br label %29

29:                                               ; preds = %26, %25
  %.1.i = phi i64 [ %.0..i, %26 ], [ %.0.i, %25 ]
  %30 = getelementptr inbounds nuw i8, ptr %5, i64 16
  %31 = load i64, ptr %30, align 8
  %.not33.i = icmp eq i64 %31, %.1.i
  br i1 %.not33.i, label %update_max_edge.exit, label %tailrecurse.i

tailrecurse.i:                                    ; preds = %29
  store i64 %.1.i, ptr %30, align 8
  %32 = load ptr, ptr %.tr36.i, align 8
  %.not.i = icmp eq ptr %32, null
  br i1 %.not.i, label %update_max_edge.exit, label %.lr.ph.i

update_max_edge.exit:                             ; preds = %tailrecurse.i, %29, %1
  %33 = getelementptr inbounds nuw i8, ptr %0, i64 16
  %34 = load ptr, ptr %33, align 8
  %.not5 = icmp eq ptr %34, null
  br i1 %.not5, label %update_max_edge.exit21, label %.lr.ph.i7

.lr.ph.i7:                                        ; preds = %update_max_edge.exit, %tailrecurse.i18
  %.tr36.i8 = phi ptr [ %63, %tailrecurse.i18 ], [ %34, %update_max_edge.exit ]
  %35 = getelementptr inbounds nuw i8, ptr %.tr36.i8, i64 24
  %36 = load ptr, ptr %35, align 8
  %37 = getelementptr inbounds nuw i8, ptr %.tr36.i8, i64 8
  %38 = load ptr, ptr %37, align 8
  %.not29.i9 = icmp eq ptr %38, null
  br i1 %.not29.i9, label %42, label %39

39:                                               ; preds = %.lr.ph.i7
  %40 = getelementptr inbounds nuw i8, ptr %38, i64 24
  %41 = load ptr, ptr %40, align 8
  br label %42

42:                                               ; preds = %39, %.lr.ph.i7
  %43 = phi ptr [ %41, %39 ], [ null, %.lr.ph.i7 ]
  %44 = getelementptr inbounds nuw i8, ptr %.tr36.i8, i64 16
  %45 = load ptr, ptr %44, align 8
  %.not30.i10 = icmp eq ptr %45, null
  br i1 %.not30.i10, label %.thread.i20, label %48

.thread.i20:                                      ; preds = %42
  %46 = getelementptr inbounds nuw i8, ptr %36, i64 8
  %47 = load i64, ptr %46, align 8
  br label %56

48:                                               ; preds = %42
  %49 = getelementptr inbounds nuw i8, ptr %45, i64 24
  %50 = load ptr, ptr %49, align 8
  %51 = getelementptr inbounds nuw i8, ptr %36, i64 8
  %52 = load i64, ptr %51, align 8
  %.not31.i11 = icmp eq ptr %50, null
  br i1 %.not31.i11, label %56, label %53

53:                                               ; preds = %48
  %54 = getelementptr inbounds nuw i8, ptr %50, i64 16
  %55 = load i64, ptr %54, align 8
  %..i12 = tail call i64 @llvm.umax.i64(i64 %52, i64 %55)
  br label %56

56:                                               ; preds = %53, %48, %.thread.i20
  %.0.i13 = phi i64 [ %..i12, %53 ], [ %52, %48 ], [ %47, %.thread.i20 ]
  %.not32.i14 = icmp eq ptr %43, null
  br i1 %.not32.i14, label %60, label %57

57:                                               ; preds = %56
  %58 = getelementptr inbounds nuw i8, ptr %43, i64 16
  %59 = load i64, ptr %58, align 8
  %.0..i15 = tail call i64 @llvm.umax.i64(i64 %.0.i13, i64 %59)
  br label %60

60:                                               ; preds = %57, %56
  %.1.i16 = phi i64 [ %.0..i15, %57 ], [ %.0.i13, %56 ]
  %61 = getelementptr inbounds nuw i8, ptr %36, i64 16
  %62 = load i64, ptr %61, align 8
  %.not33.i17 = icmp eq i64 %62, %.1.i16
  br i1 %.not33.i17, label %update_max_edge.exit21, label %tailrecurse.i18

tailrecurse.i18:                                  ; preds = %60
  store i64 %.1.i16, ptr %61, align 8
  %63 = load ptr, ptr %.tr36.i8, align 8
  %.not.i19 = icmp eq ptr %63, null
  br i1 %.not.i19, label %update_max_edge.exit21, label %.lr.ph.i7

update_max_edge.exit21:                           ; preds = %tailrecurse.i18, %60, %update_max_edge.exit
  ret void
}